; Function Attrs: nounwind uwtable
define void @Gia_QbfFree(ptr noundef captures(none) %0) local_unnamed_addr #0 {
  %2 = getelementptr inbounds nuw i8, ptr %0, i64 24
  %3 = load ptr, ptr %2, align 8, !tbaa !104
  tail call void @sat_solver_delete(ptr noundef %3) #29
  %4 = getelementptr inbounds nuw i8, ptr %0, i64 32
  %5 = load ptr, ptr %4, align 8, !tbaa !105
  tail call void @sat_solver_delete(ptr noundef %5) #29
  %6 = getelementptr inbounds nuw i8, ptr %0, i64 40
  %7 = load ptr, ptr %6, align 8, !tbaa !106
  %.not = icmp eq ptr %7, null
  br i1 %.not, label %9, label %8

8:                                                ; preds = %1
  tail call void @bmcg_sat_solver_stop(ptr noundef nonnull %7) #29
  br label %9

9:                                                ; preds = %8, %1
  %10 = getelementptr inbounds nuw i8, ptr %0, i64 64
  %11 = load ptr, ptr %10, align 8, !tbaa !109
  %12 = getelementptr inbounds nuw i8, ptr %11, i64 8
  %13 = load ptr, ptr %12, align 8, !tbaa !10
  %.not.i = icmp eq ptr %13, null
  br i1 %.not.i, label %Vec_IntFree.exit, label %14

14:                                               ; preds = %9
  tail call void @free(ptr noundef nonnull %13) #29
  br label %Vec_IntFree.exit

Vec_IntFree.exit:                                 ; preds = %9, %14
  tail call void @free(ptr noundef nonnull %11) #29
  %15 = getelementptr inbounds nuw i8, ptr %0, i64 48
  %16 = load ptr, ptr %15, align 8, !tbaa !107
  %17 = getelementptr inbounds nuw i8, ptr %16, i64 8
  %18 = load ptr, ptr %17, align 8, !tbaa !10
  %.not.i11 = icmp eq ptr %18, null
  br i1 %.not.i11, label %Vec_IntFree.exit12, label %19

19:                                               ; preds = %Vec_IntFree.exit
  tail call void @free(ptr noundef nonnull %18) #29
  br label %Vec_IntFree.exit12

Vec_IntFree.exit12:                               ; preds = %Vec_IntFree.exit, %19
  tail call void @free(ptr noundef nonnull %16) #29
  %20 = getelementptr inbounds nuw i8, ptr %0, i64 56
  %21 = load ptr, ptr %20, align 8, !tbaa !108
  %22 = getelementptr inbounds nuw i8, ptr %21, i64 8
  %23 = load ptr, ptr %22, align 8, !tbaa !10
  %.not.i13 = icmp eq ptr %23, null
  br i1 %.not.i13, label %25, label %24

24:                                               ; preds = %Vec_IntFree.exit12
  tail call void @free(ptr noundef nonnull %23) #29
  br label %25

25:                                               ; preds = %Vec_IntFree.exit12, %24
  tail call void @free(ptr noundef nonnull %21) #29
  tail call void @free(ptr noundef nonnull %0) #29
  ret void
}